target datalayout = "e-m:e-p270:32:32-p271:32:32-p272:64:64-i64:64-i128:128-f80:128-n8:16:32:64-S128"
target triple = "x86_64-unknown-linux-gnu"

%"class.sat::literal" = type { i32 }
%class.rational = type { %class.mpq }
%class.mpq = type { %class.mpz, %class.mpz }
%class.mpz = type { i32, i8, ptr }
%"class.lp_api::bound" = type <{ ptr, %"class.sat::literal", i32, i32, i8, [3 x i8], %class.rational, i32, [2 x i32], [4 x i8] }>

@_ZN8rational13g_mpq_managerE = external global ptr, align 8

; Function Attrs: mustprogress nounwind uwtable
define linkonce_odr hidden noundef zeroext i1 @_ZN11mpz_managerILb1EE8is_smallERK3mpz(ptr noundef nonnull align 8 dereferenceable(16) %a) #4 comdat align 2 {
entry:
  %a.addr = alloca ptr, align 8
  store ptr %a, ptr %a.addr, align 8
  %0 = load ptr, ptr %a.addr, align 8
  %m_kind = getelementptr inbounds %class.mpz, ptr %0, i32 0, i32 1
  %bf.load = load i8, ptr %m_kind, align 4
  %bf.clear = and i8 %bf.load, 1
  %bf.cast = zext i8 %bf.clear to i32
  %cmp = icmp eq i32 %bf.cast, 0
  ret i1 %cmp
}

; Function Attrs: mustprogress nounwind uwtable
define linkonce_odr hidden noundef zeroext i1 @_ZN11mpz_managerILb1EE6is_oneERK3mpz(ptr noundef nonnull align 8 dereferenceable(16) %a) #4 comdat align 2 {
entry:
  %a.addr = alloca ptr, align 8
  store ptr %a, ptr %a.addr, align 8
  %0 = load ptr, ptr %a.addr, align 8
  %call = call noundef zeroext i1 @_ZN11mpz_managerILb1EE8is_smallERK3mpz(ptr noundef nonnull align 8 dereferenceable(16) %0)
  br i1 %call, label %land.rhs, label %land.end

land.rhs:                                         ; preds = %entry
  %1 = load ptr, ptr %a.addr, align 8
  %m_val = getelementptr inbounds %class.mpz, ptr %1, i32 0, i32 0
  %2 = load i32, ptr %m_val, align 8
  %cmp = icmp eq i32 %2, 1
  br label %land.end

land.end:                                         ; preds = %land.rhs, %entry
  %3 = phi i1 [ false, %entry ], [ %cmp, %land.rhs ]
  ret i1 %3
}

; Function Attrs: mustprogress uwtable
define linkonce_odr hidden noundef zeroext i1 @_ZN11mpz_managerILb1EE2ltERK3mpzS3_(ptr noundef nonnull align 8 dereferenceable(600) %this, ptr noundef nonnull align 8 dereferenceable(16) %a, ptr noundef nonnull align 8 dereferenceable(16) %b) #5 comdat align 2 {
entry:
  %retval = alloca i1, align 1
  %this.addr = alloca ptr, align 8
  %a.addr = alloca ptr, align 8
  %b.addr = alloca ptr, align 8
  store ptr %this, ptr %this.addr, align 8
  store ptr %a, ptr %a.addr, align 8
  store ptr %b, ptr %b.addr, align 8
  %this1 = load ptr, ptr %this.addr, align 8
  %0 = load ptr, ptr %a.addr, align 8
  %call = call noundef zeroext i1 @_ZN11mpz_managerILb1EE8is_smallERK3mpz(ptr noundef nonnull align 8 dereferenceable(16) %0)
  br i1 %call, label %land.lhs.true, label %if.else

land.lhs.true:                                    ; preds = %entry
  %1 = load ptr, ptr %b.addr, align 8
  %call2 = call noundef zeroext i1 @_ZN11mpz_managerILb1EE8is_smallERK3mpz(ptr noundef nonnull align 8 dereferenceable(16) %1)
  br i1 %call2, label %if.then, label %if.else

if.then:                                          ; preds = %land.lhs.true
  %2 = load ptr, ptr %a.addr, align 8
  %m_val = getelementptr inbounds %class.mpz, ptr %2, i32 0, i32 0
  %3 = load i32, ptr %m_val, align 8
  %4 = load ptr, ptr %b.addr, align 8
  %m_val3 = getelementptr inbounds %class.mpz, ptr %4, i32 0, i32 0
  %5 = load i32, ptr %m_val3, align 8
  %cmp = icmp slt i32 %3, %5
  store i1 %cmp, ptr %retval, align 1
  br label %return

if.else:                                          ; preds = %land.lhs.true, %entry
  %6 = load ptr, ptr %a.addr, align 8
  %7 = load ptr, ptr %b.addr, align 8
  %call4 = call noundef i32 @_ZN11mpz_managerILb1EE11big_compareERK3mpzS3_(ptr noundef nonnull align 8 dereferenceable(600) %this1, ptr noundef nonnull align 8 dereferenceable(16) %6, ptr noundef nonnull align 8 dereferenceable(16) %7)
  %cmp5 = icmp slt i32 %call4, 0
  store i1 %cmp5, ptr %retval, align 1
  br label %return

return:                                           ; preds = %if.else, %if.then
  %8 = load i1, ptr %retval, align 1
  ret i1 %8
}

; Function Attrs: mustprogress uwtable
define linkonce_odr hidden noundef zeroext i1 @_ZN11mpq_managerILb1EE6is_oneERK3mpz(ptr noundef nonnull align 8 dereferenceable(16) %a) #5 comdat align 2 {
entry:
  %a.addr = alloca ptr, align 8
  store ptr %a, ptr %a.addr, align 8
  %0 = load ptr, ptr %a.addr, align 8
  %call = call noundef zeroext i1 @_ZN11mpz_managerILb1EE6is_oneERK3mpz(ptr noundef nonnull align 8 dereferenceable(16) %0)
  ret i1 %call
}

; Function Attrs: mustprogress uwtable
define linkonce_odr hidden noundef zeroext i1 @_ZN11mpq_managerILb1EE2ltERK3mpzS3_(ptr noundef nonnull align 8 dereferenceable(728) %this, ptr noundef nonnull align 8 dereferenceable(16) %a, ptr noundef nonnull align 8 dereferenceable(16) %b) #5 comdat align 2 {
entry:
  %this.addr = alloca ptr, align 8
  %a.addr = alloca ptr, align 8
  %b.addr = alloca ptr, align 8
  store ptr %this, ptr %this.addr, align 8
  store ptr %a, ptr %a.addr, align 8
  store ptr %b, ptr %b.addr, align 8
  %this1 = load ptr, ptr %this.addr, align 8
  %0 = load ptr, ptr %a.addr, align 8
  %1 = load ptr, ptr %b.addr, align 8
  %call = call noundef zeroext i1 @_ZN11mpz_managerILb1EE2ltERK3mpzS3_(ptr noundef nonnull align 8 dereferenceable(600) %this1, ptr noundef nonnull align 8 dereferenceable(16) %0, ptr noundef nonnull align 8 dereferenceable(16) %1)
  ret i1 %call
}

; Function Attrs: mustprogress uwtable
define linkonce_odr hidden noundef zeroext i1 @_ZN11mpq_managerILb1EE6is_intERK3mpq(ptr noundef nonnull align 8 dereferenceable(32) %a) #5 comdat align 2 {
entry:
  %a.addr = alloca ptr, align 8
  store ptr %a, ptr %a.addr, align 8
  %0 = load ptr, ptr %a.addr, align 8
  %m_den = getelementptr inbounds %class.mpq, ptr %0, i32 0, i32 1
  %call = call noundef zeroext i1 @_ZN11mpq_managerILb1EE6is_oneERK3mpz(ptr noundef nonnull align 8 dereferenceable(16) %m_den)
  ret i1 %call
}

; Function Attrs: mustprogress uwtable
define linkonce_odr hidden noundef zeroext i1 @_ZN11mpq_managerILb1EE2ltERK3mpqS3_(ptr noundef nonnull align 8 dereferenceable(728) %this, ptr noundef nonnull align 8 dereferenceable(32) %a, ptr noundef nonnull align 8 dereferenceable(32) %b) #5 comdat align 2 {
entry:
  %retval = alloca i1, align 1
  %this.addr = alloca ptr, align 8
  %a.addr = alloca ptr, align 8
  %b.addr = alloca ptr, align 8
  store ptr %this, ptr %this.addr, align 8
  store ptr %a, ptr %a.addr, align 8
  store ptr %b, ptr %b.addr, align 8
  %this1 = load ptr, ptr %this.addr, align 8
  %0 = load ptr, ptr %a.addr, align 8
  %call = call noundef zeroext i1 @_ZN11mpq_managerILb1EE6is_intERK3mpq(ptr noundef nonnull align 8 dereferenceable(32) %0)
  br i1 %call, label %land.lhs.true, label %if.else

land.lhs.true:                                    ; preds = %entry
  %1 = load ptr, ptr %b.addr, align 8
  %call2 = call noundef zeroext i1 @_ZN11mpq_managerILb1EE6is_intERK3mpq(ptr noundef nonnull align 8 dereferenceable(32) %1)
  br i1 %call2, label %if.then, label %if.else

if.then:                                          ; preds = %land.lhs.true
  %2 = load ptr, ptr %a.addr, align 8
  %m_num = getelementptr inbounds %class.mpq, ptr %2, i32 0, i32 0
  %3 = load ptr, ptr %b.addr, align 8
  %m_num3 = getelementptr inbounds %class.mpq, ptr %3, i32 0, i32 0
  %call4 = call noundef zeroext i1 @_ZN11mpq_managerILb1EE2ltERK3mpzS3_(ptr noundef nonnull align 8 dereferenceable(728) %this1, ptr noundef nonnull align 8 dereferenceable(16) %m_num, ptr noundef nonnull align 8 dereferenceable(16) %m_num3)
  store i1 %call4, ptr %retval, align 1
  br label %return

if.else:                                          ; preds = %land.lhs.true, %entry
  %4 = load ptr, ptr %a.addr, align 8
  %5 = load ptr, ptr %b.addr, align 8
  %call5 = call noundef zeroext i1 @_ZN11mpq_managerILb1EE6rat_ltERK3mpqS3_(ptr noundef nonnull align 8 dereferenceable(728) %this1, ptr noundef nonnull align 8 dereferenceable(32) %4, ptr noundef nonnull align 8 dereferenceable(32) %5)
  store i1 %call5, ptr %retval, align 1
  br label %return

return:                                           ; preds = %if.else, %if.then
  %6 = load i1, ptr %retval, align 1
  ret i1 %6
}

; Function Attrs: mustprogress nounwind uwtable
define linkonce_odr hidden noundef nonnull align 8 dereferenceable(728) ptr @_ZN8rational1mEv() #4 comdat align 2 {
entry:
  %0 = load ptr, ptr @_ZN8rational13g_mpq_managerE, align 8
  ret ptr %0
}

; Function Attrs: mustprogress uwtable
define linkonce_odr hidden noundef zeroext i1 @_ZltRK8rationalS1_(ptr noundef nonnull align 8 dereferenceable(32) %r1, ptr noundef nonnull align 8 dereferenceable(32) %r2) #5 comdat {
entry:
  %r1.addr = alloca ptr, align 8
  %r2.addr = alloca ptr, align 8
  store ptr %r1, ptr %r1.addr, align 8
  store ptr %r2, ptr %r2.addr, align 8
  %call = call noundef nonnull align 8 dereferenceable(728) ptr @_ZN8rational1mEv()
  %0 = load ptr, ptr %r1.addr, align 8
  %m_val = getelementptr inbounds %class.rational, ptr %0, i32 0, i32 0
  %1 = load ptr, ptr %r2.addr, align 8
  %m_val1 = getelementptr inbounds %class.rational, ptr %1, i32 0, i32 0
  %call2 = call noundef zeroext i1 @_ZN11mpq_managerILb1EE2ltERK3mpqS3_(ptr noundef nonnull align 8 dereferenceable(728) %call, ptr noundef nonnull align 8 dereferenceable(32) %m_val, ptr noundef nonnull align 8 dereferenceable(32) %m_val1)
  ret i1 %call2
}

; Function Attrs: mustprogress uwtable
define linkonce_odr hidden noundef zeroext i1 @_ZgtRK8rationalS1_(ptr noundef nonnull align 8 dereferenceable(32) %r1, ptr noundef nonnull align 8 dereferenceable(32) %r2) #5 comdat {
entry:
  %r1.addr = alloca ptr, align 8
  %r2.addr = alloca ptr, align 8
  store ptr %r1, ptr %r1.addr, align 8
  store ptr %r2, ptr %r2.addr, align 8
  %0 = load ptr, ptr %r2.addr, align 8
  %1 = load ptr, ptr %r1.addr, align 8
  %call = call noundef zeroext i1 @_ZltRK8rationalS1_(ptr noundef nonnull align 8 dereferenceable(32) %0, ptr noundef nonnull align 8 dereferenceable(32) %1)
  ret i1 %call
}

; Function Attrs: mustprogress uwtable
define linkonce_odr hidden noundef zeroext i1 @_ZleRK8rationalS1_(ptr noundef nonnull align 8 dereferenceable(32) %r1, ptr noundef nonnull align 8 dereferenceable(32) %r2) #5 comdat {
entry:
  %r1.addr = alloca ptr, align 8
  %r2.addr = alloca ptr, align 8
  store ptr %r1, ptr %r1.addr, align 8
  store ptr %r2, ptr %r2.addr, align 8
  %0 = load ptr, ptr %r1.addr, align 8
  %1 = load ptr, ptr %r2.addr, align 8
  %call = call noundef zeroext i1 @_ZgtRK8rationalS1_(ptr noundef nonnull align 8 dereferenceable(32) %0, ptr noundef nonnull align 8 dereferenceable(32) %1)
  %lnot = xor i1 %call, true
  ret i1 %lnot
}

; Function Attrs: mustprogress nounwind uwtable
define linkonce_odr hidden noundef i32 @_ZNK6lp_api5boundIN3sat7literalEE14get_bound_kindEv(ptr noundef nonnull align 8 dereferenceable(68) %this) #4 comdat align 2 {
entry:
  %this.addr = alloca ptr, align 8
  store ptr %this, ptr %this.addr, align 8
  %this1 = load ptr, ptr %this.addr, align 8
  %m_bound_kind = getelementptr inbounds %"class.lp_api::bound", ptr %this1, i32 0, i32 7
  %0 = load i32, ptr %m_bound_kind, align 8
  ret i32 %0
}

; Function Attrs: mustprogress nounwind uwtable
define linkonce_odr hidden noundef nonnull align 8 dereferenceable(32) ptr @_ZNK6lp_api5boundIN3sat7literalEE9get_valueEv(ptr noundef nonnull align 8 dereferenceable(68) %this) #4 comdat align 2 {
entry:
  %this.addr = alloca ptr, align 8
  store ptr %this, ptr %this.addr, align 8
  %this1 = load ptr, ptr %this.addr, align 8
  %m_value = getelementptr inbounds %"class.lp_api::bound", ptr %this1, i32 0, i32 6
  ret ptr %m_value
}

; Function Attrs: mustprogress uwtable
define hidden noundef ptr @_ZN5arith6solver8next_infEPN6lp_api5boundIN3sat7literalEEENS1_10bound_kindEPS6_S8_Rb(ptr noundef nonnull align 8 dereferenceable(1144) %this, ptr noundef %a1, i32 noundef %kind, ptr noundef %it, ptr noundef %end, ptr noundef nonnull align 1 dereferenceable(1) %found_compatible) #5 align 2 {
entry:
  %this.addr = alloca ptr, align 8
  %a1.addr = alloca ptr, align 8
  %kind.addr = alloca i32, align 4
  %it.addr = alloca ptr, align 8
  %end.addr = alloca ptr, align 8
  %found_compatible.addr = alloca ptr, align 8
  %k1 = alloca ptr, align 8
  %result = alloca ptr, align 8
  %a2 = alloca ptr, align 8
  %k2 = alloca ptr, align 8
  store ptr %this, ptr %this.addr, align 8
  store ptr %a1, ptr %a1.addr, align 8
  store i32 %kind, ptr %kind.addr, align 4
  store ptr %it, ptr %it.addr, align 8
  store ptr %end, ptr %end.addr, align 8
  store ptr %found_compatible, ptr %found_compatible.addr, align 8
  %0 = load ptr, ptr %a1.addr, align 8
  %call = call noundef nonnull align 8 dereferenceable(32) ptr @_ZNK6lp_api5boundIN3sat7literalEE9get_valueEv(ptr noundef nonnull align 8 dereferenceable(68) %0)
  store ptr %call, ptr %k1, align 8
  %1 = load ptr, ptr %end.addr, align 8
  store ptr %1, ptr %result, align 8
  %2 = load ptr, ptr %found_compatible.addr, align 8
  store i8 0, ptr %2, align 1
  br label %for.cond

for.cond:                                         ; preds = %for.inc, %entry
  %3 = load ptr, ptr %it.addr, align 8
  %4 = load ptr, ptr %end.addr, align 8
  %cmp = icmp ne ptr %3, %4
  br i1 %cmp, label %for.body, label %for.end

for.body:                                         ; preds = %for.cond
  %5 = load ptr, ptr %it.addr, align 8
  %6 = load ptr, ptr %5, align 8
  store ptr %6, ptr %a2, align 8
  %7 = load ptr, ptr %a1.addr, align 8
  %8 = load ptr, ptr %a2, align 8
  %cmp2 = icmp eq ptr %7, %8
  br i1 %cmp2, label %if.then, label %if.end

if.then:                                          ; preds = %for.body
  br label %for.inc

if.end:                                           ; preds = %for.body
  %9 = load ptr, ptr %a2, align 8
  %call3 = call noundef i32 @_ZNK6lp_api5boundIN3sat7literalEE14get_bound_kindEv(ptr noundef nonnull align 8 dereferenceable(68) %9)
  %10 = load i32, ptr %kind.addr, align 4
  %cmp4 = icmp ne i32 %call3, %10
  br i1 %cmp4, label %if.then5, label %if.end6

if.then5:                                         ; preds = %if.end
  br label %for.inc

if.end6:                                          ; preds = %if.end
  %11 = load ptr, ptr %a2, align 8
  %call7 = call noundef nonnull align 8 dereferenceable(32) ptr @_ZNK6lp_api5boundIN3sat7literalEE9get_valueEv(ptr noundef nonnull align 8 dereferenceable(68) %11)
  store ptr %call7, ptr %k2, align 8
  %12 = load ptr, ptr %found_compatible.addr, align 8
  store i8 1, ptr %12, align 1
  %13 = load ptr, ptr %k2, align 8
  %14 = load ptr, ptr %k1, align 8
  %call8 = call noundef zeroext i1 @_ZleRK8rationalS1_(ptr noundef nonnull align 8 dereferenceable(32) %13, ptr noundef nonnull align 8 dereferenceable(32) %14)
  br i1 %call8, label %if.then9, label %if.else

if.then9:                                         ; preds = %if.end6
  %15 = load ptr, ptr %it.addr, align 8
  store ptr %15, ptr %result, align 8
  br label %if.end10

if.else:                                          ; preds = %if.end6
  br label %for.end

if.end10:                                         ; preds = %if.then9
  br label %for.inc

for.inc:                                          ; preds = %if.end10, %if.then5, %if.then
  %16 = load ptr, ptr %it.addr, align 8
  %incdec.ptr = getelementptr inbounds ptr, ptr %16, i32 1
  store ptr %incdec.ptr, ptr %it.addr, align 8
  br label %for.cond, !llvm.loop !22

for.end:                                          ; preds = %if.else, %for.cond
  %17 = load ptr, ptr %result, align 8
  ret ptr %17
}